target datalayout = "e-m:e-p270:32:32-p271:32:32-p272:64:64-i64:64-i128:128-f80:128-n8:16:32:64-S128"
target triple = "x86_64-unknown-linux-gnu"

%struct.aiString = type { i32, [1024 x i8] }

@.str.57 = private unnamed_addr constant [10 x i8] c"$tex.file\00", align 1
@.str.90 = private unnamed_addr constant [12 x i8] c"$tex.uvwsrc\00", align 1

; Function Attrs: mustprogress nounwind uwtable
define linkonce_odr hidden void @_ZN8aiStringC2Ev(ptr noundef nonnull align 4 dereferenceable(1028) %this) unnamed_addr #0 comdat align 2 {
entry:
  %this.addr = alloca ptr, align 8
  store ptr %this, ptr %this.addr, align 8
  %this1 = load ptr, ptr %this.addr, align 8
  %length = getelementptr inbounds %struct.aiString, ptr %this1, i32 0, i32 0
  store i32 0, ptr %length, align 4
  %data = getelementptr inbounds %struct.aiString, ptr %this1, i32 0, i32 1
  %arrayidx = getelementptr inbounds [1024 x i8], ptr %data, i64 0, i64 0
  store i8 0, ptr %arrayidx, align 4
  ret void
}

; Function Attrs: mustprogress uwtable
define linkonce_odr noundef i32 @_ZN10aiMaterial11AddPropertyIiEE8aiReturnPKT_jPKcjj(ptr noundef nonnull align 8 dereferenceable(16) %this, ptr noundef %pInput, i32 noundef %pNumValues, ptr noundef %pKey, i32 noundef %type, i32 noundef %index) #2 comdat align 2 {
entry:
  %this.addr = alloca ptr, align 8
  %pInput.addr = alloca ptr, align 8
  %pNumValues.addr = alloca i32, align 4
  %pKey.addr = alloca ptr, align 8
  %type.addr = alloca i32, align 4
  %index.addr = alloca i32, align 4
  store ptr %this, ptr %this.addr, align 8
  store ptr %pInput, ptr %pInput.addr, align 8
  store i32 %pNumValues, ptr %pNumValues.addr, align 4
  store ptr %pKey, ptr %pKey.addr, align 8
  store i32 %type, ptr %type.addr, align 4
  store i32 %index, ptr %index.addr, align 4
  %this1 = load ptr, ptr %this.addr, align 8
  %0 = load ptr, ptr %pInput.addr, align 8
  %1 = load i32, ptr %pNumValues.addr, align 4
  %conv = zext i32 %1 to i64
  %mul = mul i64 %conv, 4
  %conv2 = trunc i64 %mul to i32
  %2 = load ptr, ptr %pKey.addr, align 8
  %3 = load i32, ptr %type.addr, align 4
  %4 = load i32, ptr %index.addr, align 4
  %call = call noundef i32 @_ZN10aiMaterial17AddBinaryPropertyEPKvjPKcjj18aiPropertyTypeInfo(ptr noundef nonnull align 8 dereferenceable(16) %this1, ptr noundef %0, i32 noundef %conv2, ptr noundef %2, i32 noundef %3, i32 noundef %4, i32 noundef 4)
  ret i32 %call
}

; Function Attrs: mustprogress uwtable
define hidden void @_ZN6Assimp11MDLImporter19JoinSkins_3DGS_MDL7EP10aiMaterialS2_S2_(ptr noundef nonnull align 8 dereferenceable(158) %this, ptr noundef %pcMat1, ptr noundef %pcMat2, ptr noundef %pcMatOut) #2 align 2 {
entry:
  %this.addr = alloca ptr, align 8
  %pcMat1.addr = alloca ptr, align 8
  %pcMat2.addr = alloca ptr, align 8
  %pcMatOut.addr = alloca ptr, align 8
  %iVal = alloca i32, align 4
  %sString = alloca %struct.aiString, align 4
  store ptr %this, ptr %this.addr, align 8
  store ptr %pcMat1, ptr %pcMat1.addr, align 8
  store ptr %pcMat2, ptr %pcMat2.addr, align 8
  store ptr %pcMatOut, ptr %pcMatOut.addr, align 8
  %0 = load ptr, ptr %pcMatOut.addr, align 8
  %1 = load ptr, ptr %pcMat1.addr, align 8
  call void @_ZN10aiMaterial16CopyPropertyListEPS_PKS_(ptr noundef %0, ptr noundef %1)
  store i32 0, ptr %iVal, align 4
  %2 = load ptr, ptr %pcMatOut.addr, align 8
  %call = call noundef i32 @_ZN10aiMaterial11AddPropertyIiEE8aiReturnPKT_jPKcjj(ptr noundef nonnull align 8 dereferenceable(16) %2, ptr noundef %iVal, i32 noundef 1, ptr noundef @.str.90, i32 noundef 1, i32 noundef 0)
  call void @_ZN8aiStringC2Ev(ptr noundef nonnull align 4 dereferenceable(1028) %sString) #16
  %3 = load ptr, ptr %pcMat2.addr, align 8
  %call2 = call i32 @aiGetMaterialString(ptr noundef %3, ptr noundef @.str.57, i32 noundef 1, i32 noundef 0, ptr noundef %sString)
  %cmp = icmp eq i32 0, %call2
  br i1 %cmp, label %if.then, label %if.end

if.then:                                          ; preds = %entry
  store i32 1, ptr %iVal, align 4
  %4 = load ptr, ptr %pcMatOut.addr, align 8
  %call3 = call noundef i32 @_ZN10aiMaterial11AddPropertyIiEE8aiReturnPKT_jPKcjj(ptr noundef nonnull align 8 dereferenceable(16) %4, ptr noundef %iVal, i32 noundef 1, ptr noundef @.str.90, i32 noundef 1, i32 noundef 1)
  %5 = load ptr, ptr %pcMatOut.addr, align 8
  %call4 = call noundef i32 @_ZN10aiMaterial11AddPropertyEPK8aiStringPKcjj(ptr noundef nonnull align 8 dereferenceable(16) %5, ptr noundef %sString, ptr noundef @.str.57, i32 noundef 1, i32 noundef 1)
  br label %if.end

if.end:                                           ; preds = %if.then, %entry
  ret void
}