; Function Attrs: mustprogress uwtable
define hidden void @_ZN6Assimp11MDLImporter19JoinSkins_3DGS_MDL7EP10aiMaterialS2_S2_(ptr nocapture nonnull readnone align 8 %this, ptr noundef %pcMat1, ptr noundef %pcMat2, ptr noundef %pcMatOut) local_unnamed_addr #2 align 2 {
entry:
  %iVal = alloca i32, align 4
  %sString = alloca %struct.aiString, align 4
  tail call void @_ZN10aiMaterial16CopyPropertyListEPS_PKS_(ptr noundef %pcMatOut, ptr noundef %pcMat1)
  store i32 0, ptr %iVal, align 4
  %call.i = call noundef i32 @_ZN10aiMaterial17AddBinaryPropertyEPKvjPKcjj18aiPropertyTypeInfo(ptr noundef nonnull align 8 dereferenceable(16) %pcMatOut, ptr noundef nonnull %iVal, i32 noundef 4, ptr noundef nonnull @.str.90, i32 noundef 1, i32 noundef 0, i32 noundef 4)
  store i32 0, ptr %sString, align 4
  %data.i = getelementptr inbounds i8, ptr %sString, i64 4
  store i8 0, ptr %data.i, align 4
  %call2 = call i32 @aiGetMaterialString(ptr noundef %pcMat2, ptr noundef nonnull @.str.57, i32 noundef 1, i32 noundef 0, ptr noundef nonnull %sString)
  %cmp = icmp eq i32 %call2, 0
  br i1 %cmp, label %if.then, label %if.end

if.then:                                          ; preds = %entry
  store i32 1, ptr %iVal, align 4
  %call.i4 = call noundef i32 @_ZN10aiMaterial17AddBinaryPropertyEPKvjPKcjj18aiPropertyTypeInfo(ptr noundef nonnull align 8 dereferenceable(16) %pcMatOut, ptr noundef nonnull %iVal, i32 noundef 4, ptr noundef nonnull @.str.90, i32 noundef 1, i32 noundef 1, i32 noundef 4)
  %call4 = call noundef i32 @_ZN10aiMaterial11AddPropertyEPK8aiStringPKcjj(ptr noundef nonnull align 8 dereferenceable(16) %pcMatOut, ptr noundef nonnull %sString, ptr noundef nonnull @.str.57, i32 noundef 1, i32 noundef 1)
  br label %if.end

if.end:                                           ; preds = %if.then, %entry
  ret void
}